target datalayout = "e-m:e-p270:32:32-p271:32:32-p272:64:64-i64:64-i128:128-f80:128-n8:16:32:64-S128"
target triple = "x86_64-pc-linux-gnu"

%struct._object = type { %union.anon, ptr }
%union.anon = type { i64 }
%struct._ts = type { ptr, ptr, ptr, i64, %struct.anon.5, i32, i32, i32, i32, i32, i32, i32, i32, ptr, ptr, ptr, ptr, ptr, ptr, ptr, ptr, i32, ptr, i64, i64, ptr, i64, i32, ptr, ptr, ptr, i64, i64, ptr, ptr, ptr, %struct._err_stackitem, ptr, i64, ptr, ptr }
%struct.anon.5 = type { i32 }
%struct._err_stackitem = type { ptr, ptr }
%struct.PyMethodDef = type { ptr, ptr, i32, ptr }
%struct.PyCFunctionObject = type { %struct._object, ptr, ptr, ptr, ptr, ptr }

@_Py_tss_tstate = external thread_local global ptr, align 8
@.str.23 = private unnamed_addr constant [31 x i8] c" while calling a Python object\00", align 1

; Function Attrs: inlinehint nounwind uwtable
define internal i32 @_Py_MakeRecCheck(ptr noundef %0) #3 {
  %2 = alloca ptr, align 8
  store ptr %0, ptr %2, align 8, !tbaa !32
  %3 = load ptr, ptr %2, align 8, !tbaa !32
  %4 = getelementptr inbounds nuw %struct._ts, ptr %3, i32 0, i32 9
  %5 = load i32, ptr %4, align 4, !tbaa !114
  %6 = add i32 %5, -1
  store i32 %6, ptr %4, align 4, !tbaa !114
  %7 = icmp slt i32 %5, 0
  %8 = zext i1 %7 to i32
  ret i32 %8
}

; Function Attrs: inlinehint nounwind uwtable
define internal ptr @PyCFunction_GET_FUNCTION(ptr noundef %0) #3 {
  %2 = alloca ptr, align 8
  store ptr %0, ptr %2, align 8, !tbaa !9
  %3 = load ptr, ptr %2, align 8, !tbaa !9
  %4 = getelementptr inbounds nuw %struct.PyCFunctionObject, ptr %3, i32 0, i32 1
  %5 = load ptr, ptr %4, align 8, !tbaa !24
  %6 = getelementptr inbounds nuw %struct.PyMethodDef, ptr %5, i32 0, i32 1
  %7 = load ptr, ptr %6, align 8, !tbaa !113
  ret ptr %7
}

; Function Attrs: inlinehint nounwind uwtable
define internal i32 @_Py_EnterRecursiveCallTstate(ptr noundef %0, ptr noundef %1) #3 {
  %3 = alloca ptr, align 8
  %4 = alloca ptr, align 8
  store ptr %0, ptr %3, align 8, !tbaa !32
  store ptr %1, ptr %4, align 8, !tbaa !125
  %5 = load ptr, ptr %3, align 8, !tbaa !32
  %6 = call i32 @_Py_MakeRecCheck(ptr noundef %5)
  %7 = icmp ne i32 %6, 0
  br i1 %7, label %8, label %13

8:                                                ; preds = %2
  %9 = load ptr, ptr %3, align 8, !tbaa !32
  %10 = load ptr, ptr %4, align 8, !tbaa !125
  %11 = call i32 @_Py_CheckRecursiveCall(ptr noundef %9, ptr noundef %10)
  %12 = icmp ne i32 %11, 0
  br label %13

13:                                               ; preds = %8, %2
  %14 = phi i1 [ false, %2 ], [ %12, %8 ]
  %15 = zext i1 %14 to i32
  ret i32 %15
}

; Function Attrs: inlinehint nounwind uwtable
define internal void @_Py_LeaveRecursiveCallTstate(ptr noundef %0) #3 {
  %2 = alloca ptr, align 8
  store ptr %0, ptr %2, align 8, !tbaa !32
  %3 = load ptr, ptr %2, align 8, !tbaa !32
  %4 = getelementptr inbounds nuw %struct._ts, ptr %3, i32 0, i32 9
  %5 = load i32, ptr %4, align 4, !tbaa !114
  %6 = add i32 %5, 1
  store i32 %6, ptr %4, align 4, !tbaa !114
  ret void
}

; Function Attrs: inlinehint nounwind uwtable
define internal ptr @PyCFunction_GET_SELF(ptr noundef %0) #3 {
  %2 = alloca ptr, align 8
  %3 = alloca ptr, align 8
  %4 = alloca ptr, align 8
  %5 = alloca i32, align 4
  store ptr %0, ptr %3, align 8, !tbaa !9
  call void @llvm.lifetime.start.p0(i64 8, ptr %4) #6
  %6 = load ptr, ptr %3, align 8, !tbaa !9
  store ptr %6, ptr %4, align 8, !tbaa !17
  %7 = load ptr, ptr %4, align 8, !tbaa !17
  %8 = getelementptr inbounds nuw %struct.PyCFunctionObject, ptr %7, i32 0, i32 1
  %9 = load ptr, ptr %8, align 8, !tbaa !24
  %10 = getelementptr inbounds nuw %struct.PyMethodDef, ptr %9, i32 0, i32 2
  %11 = load i32, ptr %10, align 8, !tbaa !13
  %12 = and i32 %11, 32
  %13 = icmp ne i32 %12, 0
  br i1 %13, label %14, label %15

14:                                               ; preds = %1
  store ptr null, ptr %2, align 8
  store i32 1, ptr %5, align 4
  br label %19

15:                                               ; preds = %1
  %16 = load ptr, ptr %4, align 8, !tbaa !17
  %17 = getelementptr inbounds nuw %struct.PyCFunctionObject, ptr %16, i32 0, i32 2
  %18 = load ptr, ptr %17, align 8, !tbaa !25
  store ptr %18, ptr %2, align 8
  store i32 1, ptr %5, align 4
  br label %19

19:                                               ; preds = %15, %14
  call void @llvm.lifetime.end.p0(i64 8, ptr %4) #6
  %20 = load ptr, ptr %2, align 8
  ret ptr %20
}

; Function Attrs: inlinehint nounwind uwtable
define internal ptr @cfunction_enter_call(ptr noundef %0, ptr noundef %1) #3 {
  %3 = alloca ptr, align 8
  %4 = alloca ptr, align 8
  %5 = alloca ptr, align 8
  store ptr %0, ptr %4, align 8, !tbaa !32
  store ptr %1, ptr %5, align 8, !tbaa !9
  %6 = load ptr, ptr %4, align 8, !tbaa !32
  %7 = call i32 @_Py_EnterRecursiveCallTstate(ptr noundef %6, ptr noundef @.str.23)
  %8 = icmp ne i32 %7, 0
  br i1 %8, label %9, label %10

9:                                                ; preds = %2
  store ptr null, ptr %3, align 8
  br label %13

10:                                               ; preds = %2
  %11 = load ptr, ptr %5, align 8, !tbaa !9
  %12 = call ptr @PyCFunction_GET_FUNCTION(ptr noundef %11)
  store ptr %12, ptr %3, align 8
  br label %13

13:                                               ; preds = %10, %9
  %14 = load ptr, ptr %3, align 8
  ret ptr %14
}

; Function Attrs: inlinehint nounwind uwtable
define internal i64 @_PyVectorcall_NARGS(i64 noundef %0) #3 {
  %2 = alloca i64, align 8
  store i64 %0, ptr %2, align 8, !tbaa !30
  %3 = load i64, ptr %2, align 8, !tbaa !30
  %4 = and i64 %3, 9223372036854775807
  ret i64 %4
}

; Function Attrs: inlinehint nounwind uwtable
define internal ptr @_PyThreadState_GET() #3 {
  %1 = call align 8 ptr @llvm.threadlocal.address.p0(ptr align 8 @_Py_tss_tstate)
  %2 = load ptr, ptr %1, align 8, !tbaa !32
  ret ptr %2
}

; Function Attrs: nounwind uwtable
define internal ptr @cfunction_vectorcall_FASTCALL_KEYWORDS(ptr noundef %0, ptr noundef %1, i64 noundef %2, ptr noundef %3) #0 {
  %5 = alloca ptr, align 8
  %6 = alloca ptr, align 8
  %7 = alloca ptr, align 8
  %8 = alloca i64, align 8
  %9 = alloca ptr, align 8
  %10 = alloca ptr, align 8
  %11 = alloca i64, align 8
  %12 = alloca ptr, align 8
  %13 = alloca i32, align 4
  %14 = alloca ptr, align 8
  store ptr %0, ptr %6, align 8, !tbaa !9
  store ptr %1, ptr %7, align 8, !tbaa !28
  store i64 %2, ptr %8, align 8, !tbaa !30
  store ptr %3, ptr %9, align 8, !tbaa !9
  call void @llvm.lifetime.start.p0(i64 8, ptr %10) #6
  %15 = call ptr @_PyThreadState_GET()
  store ptr %15, ptr %10, align 8, !tbaa !32
  call void @llvm.lifetime.start.p0(i64 8, ptr %11) #6
  %16 = load i64, ptr %8, align 8, !tbaa !30
  %17 = call i64 @_PyVectorcall_NARGS(i64 noundef %16)
  store i64 %17, ptr %11, align 8, !tbaa !30
  call void @llvm.lifetime.start.p0(i64 8, ptr %12) #6
  %18 = load ptr, ptr %10, align 8, !tbaa !32
  %19 = load ptr, ptr %6, align 8, !tbaa !9
  %20 = call ptr @cfunction_enter_call(ptr noundef %18, ptr noundef %19)
  store ptr %20, ptr %12, align 8, !tbaa !17
  %21 = load ptr, ptr %12, align 8, !tbaa !17
  %22 = icmp eq ptr %21, null
  br i1 %22, label %23, label %24

23:                                               ; preds = %4
  store ptr null, ptr %5, align 8
  store i32 1, ptr %13, align 4
  br label %34

24:                                               ; preds = %4
  call void @llvm.lifetime.start.p0(i64 8, ptr %14) #6
  %25 = load ptr, ptr %12, align 8, !tbaa !17
  %26 = load ptr, ptr %6, align 8, !tbaa !9
  %27 = call ptr @PyCFunction_GET_SELF(ptr noundef %26)
  %28 = load ptr, ptr %7, align 8, !tbaa !28
  %29 = load i64, ptr %11, align 8, !tbaa !30
  %30 = load ptr, ptr %9, align 8, !tbaa !9
  %31 = call ptr %25(ptr noundef %27, ptr noundef %28, i64 noundef %29, ptr noundef %30)
  store ptr %31, ptr %14, align 8, !tbaa !9
  %32 = load ptr, ptr %10, align 8, !tbaa !32
  call void @_Py_LeaveRecursiveCallTstate(ptr noundef %32)
  %33 = load ptr, ptr %14, align 8, !tbaa !9
  store ptr %33, ptr %5, align 8
  store i32 1, ptr %13, align 4
  call void @llvm.lifetime.end.p0(i64 8, ptr %14) #6
  br label %34

34:                                               ; preds = %24, %23
  call void @llvm.lifetime.end.p0(i64 8, ptr %12) #6
  call void @llvm.lifetime.end.p0(i64 8, ptr %11) #6
  call void @llvm.lifetime.end.p0(i64 8, ptr %10) #6
  %35 = load ptr, ptr %5, align 8
  ret ptr %35
}