; Function Attrs: nounwind uwtable
define internal ptr @cfunction_vectorcall_FASTCALL_KEYWORDS(ptr noundef readonly captures(none) %0, ptr noundef %1, i64 noundef %2, ptr noundef %3) #0 {
  %5 = tail call align 8 ptr @llvm.threadlocal.address.p0(ptr align 8 @_Py_tss_tstate)
  %6 = load ptr, ptr %5, align 8, !tbaa !26
  %7 = and i64 %2, 9223372036854775807
  %8 = getelementptr inbounds nuw i8, ptr %6, i64 52
  %9 = load i32, ptr %8, align 4, !tbaa !111
  %10 = add i32 %9, -1
  store i32 %10, ptr %8, align 4, !tbaa !111
  %.not.i.i = icmp sgt i32 %9, -1
  br i1 %.not.i.i, label %cfunction_enter_call.exit, label %_Py_EnterRecursiveCallTstate.exit.i

_Py_EnterRecursiveCallTstate.exit.i:              ; preds = %4
  %11 = tail call i32 @_Py_CheckRecursiveCall(ptr noundef nonnull %6, ptr noundef nonnull @.str.23) #5
  %.not4.i = icmp eq i32 %11, 0
  br i1 %.not4.i, label %cfunction_enter_call.exit, label %cfunction_enter_call.exit.thread

cfunction_enter_call.exit:                        ; preds = %4, %_Py_EnterRecursiveCallTstate.exit.i
  %12 = getelementptr i8, ptr %0, i64 16
  %.val.i = load ptr, ptr %12, align 8, !tbaa !22
  %13 = getelementptr i8, ptr %.val.i, i64 8
  %.val.val.i = load ptr, ptr %13, align 8, !tbaa !112
  %14 = icmp eq ptr %.val.val.i, null
  br i1 %14, label %cfunction_enter_call.exit.thread, label %15

15:                                               ; preds = %cfunction_enter_call.exit
  %16 = getelementptr inbounds nuw i8, ptr %.val.i, i64 16
  %17 = load i32, ptr %16, align 8, !tbaa !4
  %18 = and i32 %17, 32
  %.not.i = icmp eq i32 %18, 0
  br i1 %.not.i, label %19, label %PyCFunction_GET_SELF.exit

19:                                               ; preds = %15
  %20 = getelementptr inbounds nuw i8, ptr %0, i64 24
  %21 = load ptr, ptr %20, align 8, !tbaa !23
  br label %PyCFunction_GET_SELF.exit

PyCFunction_GET_SELF.exit:                        ; preds = %15, %19
  %.0.i12 = phi ptr [ %21, %19 ], [ null, %15 ]
  %22 = tail call ptr %.val.val.i(ptr noundef %.0.i12, ptr noundef %1, i64 noundef %7, ptr noundef %3) #5
  %23 = load i32, ptr %8, align 4, !tbaa !111
  %24 = add i32 %23, 1
  store i32 %24, ptr %8, align 4, !tbaa !111
  br label %cfunction_enter_call.exit.thread

cfunction_enter_call.exit.thread:                 ; preds = %_Py_EnterRecursiveCallTstate.exit.i, %cfunction_enter_call.exit, %PyCFunction_GET_SELF.exit
  %.0 = phi ptr [ %22, %PyCFunction_GET_SELF.exit ], [ null, %cfunction_enter_call.exit ], [ null, %_Py_EnterRecursiveCallTstate.exit.i ]
  ret ptr %.0
}